; Function Attrs: mustprogress nounwind uwtable
define void @_ZN3zmq14plain_server_tD2Ev(ptr noundef nonnull align 8 dereferenceable(1576) %this, ptr nocapture noundef readonly %vtt) unnamed_addr #3 align 2 {
entry:
  %0 = getelementptr inbounds i8, ptr %vtt, i64 16
  %1 = load ptr, ptr %0, align 8
  store ptr %1, ptr %this, align 8
  %2 = getelementptr inbounds i8, ptr %vtt, i64 24
  %3 = load ptr, ptr %2, align 8
  %vbase.offset.ptr.i.i = getelementptr i8, ptr %1, i64 -24
  %vbase.offset.i.i = load i64, ptr %vbase.offset.ptr.i.i, align 8
  %add.ptr.i.i = getelementptr inbounds i8, ptr %this, i64 %vbase.offset.i.i
  store ptr %3, ptr %add.ptr.i.i, align 8
  %status_code.i.i = getelementptr inbounds i8, ptr %this, i64 40
  tail call void @_ZNSt7__cxx1112basic_stringIcSt11char_traitsIcESaIcEED1Ev(ptr noundef nonnull align 8 dereferenceable(32) %status_code.i.i) #13
  %peer_address.i.i = getelementptr inbounds i8, ptr %this, i64 8
  tail call void @_ZNSt7__cxx1112basic_stringIcSt11char_traitsIcESaIcEED1Ev(ptr noundef nonnull align 8 dereferenceable(32) %peer_address.i.i) #13
  ret void
}